SF:/Users/nami/github/openintentsframework/oif-solvers/crates/solver-config/src/lib.rs
FN:332,_RNCNCNvMs_Cs7ipH10p3E4C_13solver_configNtB8_6Config9from_file00B8_
FN:337,_RNCNCNvMs_Cs7ipH10p3E4C_13solver_configNtB8_6Config9from_file0s_0B8_
FN:330,_RNCNvMs_Cs7ipH10p3E4C_13solver_configNtB6_6Config9from_file0B6_
FN:330,_RNvMs_Cs7ipH10p3E4C_13solver_configNtB4_6Config9from_file
FN:242,_RNvCs7ipH10p3E4C_13solver_config16default_api_host
FN:250,_RNvCs7ipH10p3E4C_13solver_config16default_api_port
FN:276,_RNvCs7ipH10p3E4C_13solver_config16resolve_env_vars
FN:258,_RNvCs7ipH10p3E4C_13solver_config19default_api_timeout
FN:128,_RNvCs7ipH10p3E4C_13solver_config21default_confirmations
FN:266,_RNvCs7ipH10p3E4C_13solver_config24default_max_request_size
FN:97,_RNvCs7ipH10p3E4C_13solver_config34default_monitoring_timeout_minutes
FN:511,_RNvMs_Cs7ipH10p3E4C_13solver_configNtB4_6Config28validate_settlement_coverage
FN:352,_RNvMs_Cs7ipH10p3E4C_13solver_configNtB4_6Config8validate
FN:38,_RNvXCs7ipH10p3E4C_13solver_configNtB2_11ConfigErrorINtNtCsfvfooZQ3Axs_4core7convert4FromNtNtNtCs2bnjsVAU1C3_4toml2de5error5ErrorE4from
FN:593,_RNvXs0_Cs7ipH10p3E4C_13solver_configNtB5_6ConfigNtNtNtCsfvfooZQ3Axs_4core3str6traits7FromStr8from_str
FN:606,_RNvNtCs7ipH10p3E4C_13solver_config5testss_23test_env_var_resolution
FN:636,_RNvNtCs7ipH10p3E4C_13solver_config5testss_25test_config_with_env_vars
FN:621,_RNvNtCs7ipH10p3E4C_13solver_config5testss_25test_env_var_with_default
FN:628,_RNvNtCs7ipH10p3E4C_13solver_config5testss_26test_missing_env_var_error
FN:904,_RNvNtCs7ipH10p3E4C_13solver_config5testss_38test_order_standard_without_settlement
FN:784,_RNvNtCs7ipH10p3E4C_13solver_config5testss_41test_missing_settlement_standard_rejected
FN:844,_RNvNtCs7ipH10p3E4C_13solver_config5testss_42test_settlement_references_invalid_network
FN:701,_RNvNtCs7ipH10p3E4C_13solver_config5testss_43test_duplicate_settlement_coverage_rejected
FN:50,_RNCINvXs0_NvXNvCs7ipH10p3E4C_13solver_config1__NtBd_6ConfigNtNtCsl7RnPhtMn4I_5serde2de11Deserialize11deserializeNtB8_9___VisitorNtBX_7Visitor9visit_seqNtNtNtNtCs2bnjsVAU1C3_4toml2de12deserializer5array14ArraySeqAccessE0Bd_
FN:288,_RNCNvCs7ipH10p3E4C_13solver_config16resolve_env_vars0B3_
FN:296,_RNCNvCs7ipH10p3E4C_13solver_config16resolve_env_varss_0B3_
FN:520,_RNCNvMs_Cs7ipH10p3E4C_13solver_configNtB6_6Config28validate_settlement_coverage0B6_
FN:531,_RNCNvMs_Cs7ipH10p3E4C_13solver_configNtB6_6Config28validate_settlement_coverages0_0B6_
FN:532,_RNCNvMs_Cs7ipH10p3E4C_13solver_configNtB6_6Config28validate_settlement_coverages1_0B6_
FN:541,_RNCNvMs_Cs7ipH10p3E4C_13solver_configNtB6_6Config28validate_settlement_coverages2_0B6_
FN:571,_RNCNvMs_Cs7ipH10p3E4C_13solver_configNtB6_6Config28validate_settlement_coverages3_0B6_
FN:521,_RNCNvMs_Cs7ipH10p3E4C_13solver_configNtB6_6Config28validate_settlement_coverages_0B6_
FNDA:0,_RNCNCNvMs_Cs7ipH10p3E4C_13solver_configNtB8_6Config9from_file00B8_
FNDA:0,_RNCNCNvMs_Cs7ipH10p3E4C_13solver_configNtB8_6Config9from_file0s_0B8_
FNDA:0,_RNCNvMs_Cs7ipH10p3E4C_13solver_configNtB6_6Config9from_file0B6_
FNDA:0,_RNvMs_Cs7ipH10p3E4C_13solver_configNtB4_6Config9from_file
FNDA:0,_RNvCs7ipH10p3E4C_13solver_config16default_api_host
FNDA:0,_RNvCs7ipH10p3E4C_13solver_config16default_api_port
FNDA:17,_RNvCs7ipH10p3E4C_13solver_config16resolve_env_vars
FNDA:0,_RNvCs7ipH10p3E4C_13solver_config19default_api_timeout
FNDA:7,_RNvCs7ipH10p3E4C_13solver_config21default_confirmations
FNDA:0,_RNvCs7ipH10p3E4C_13solver_config24default_max_request_size
FNDA:0,_RNvCs7ipH10p3E4C_13solver_config34default_monitoring_timeout_minutes
FNDA:7,_RNvMs_Cs7ipH10p3E4C_13solver_configNtB4_6Config28validate_settlement_coverage
FNDA:7,_RNvMs_Cs7ipH10p3E4C_13solver_configNtB4_6Config8validate
FNDA:0,_RNvXCs7ipH10p3E4C_13solver_configNtB2_11ConfigErrorINtNtCsfvfooZQ3Axs_4core7convert4FromNtNtNtCs2bnjsVAU1C3_4toml2de5error5ErrorE4from
FNDA:7,_RNvXs0_Cs7ipH10p3E4C_13solver_configNtB5_6ConfigNtNtNtCsfvfooZQ3Axs_4core3str6traits7FromStr8from_str
FNDA:1,_RNvNtCs7ipH10p3E4C_13solver_config5testss_23test_env_var_resolution
FNDA:1,_RNvNtCs7ipH10p3E4C_13solver_config5testss_25test_config_with_env_vars
FNDA:1,_RNvNtCs7ipH10p3E4C_13solver_config5testss_25test_env_var_with_default
FNDA:1,_RNvNtCs7ipH10p3E4C_13solver_config5testss_26test_missing_env_var_error
FNDA:1,_RNvNtCs7ipH10p3E4C_13solver_config5testss_38test_order_standard_without_settlement
FNDA:1,_RNvNtCs7ipH10p3E4C_13solver_config5testss_41test_missing_settlement_standard_rejected
FNDA:1,_RNvNtCs7ipH10p3E4C_13solver_config5testss_42test_settlement_references_invalid_network
FNDA:1,_RNvNtCs7ipH10p3E4C_13solver_config5testss_43test_duplicate_settlement_coverage_rejected
FNDA:0,_RNCINvXs0_NvXNvCs7ipH10p3E4C_13solver_config1__NtBd_6ConfigNtNtCsl7RnPhtMn4I_5serde2de11Deserialize11deserializeNtB8_9___VisitorNtBX_7Visitor9visit_seqNtNtNtNtCs2bnjsVAU1C3_4toml2de12deserializer5array14ArraySeqAccessE0Bd_
FNDA:0,_RNCNvCs7ipH10p3E4C_13solver_config16resolve_env_vars0B3_
FNDA:2,_RNCNvCs7ipH10p3E4C_13solver_config16resolve_env_varss_0B3_
FNDA:7,_RNCNvMs_Cs7ipH10p3E4C_13solver_configNtB6_6Config28validate_settlement_coverage0B6_
FNDA:7,_RNCNvMs_Cs7ipH10p3E4C_13solver_configNtB6_6Config28validate_settlement_coverages0_0B6_
FNDA:0,_RNCNvMs_Cs7ipH10p3E4C_13solver_configNtB6_6Config28validate_settlement_coverages1_0B6_
FNDA:0,_RNCNvMs_Cs7ipH10p3E4C_13solver_configNtB6_6Config28validate_settlement_coverages2_0B6_
FNDA:6,_RNCNvMs_Cs7ipH10p3E4C_13solver_configNtB6_6Config28validate_settlement_coverages3_0B6_
FNDA:1,_RNCNvMs_Cs7ipH10p3E4C_13solver_configNtB6_6Config28validate_settlement_coverages_0B6_
FNF:32
FNH:18
DA:38,0
DA:39,0
DA:40,0
DA:41,0
DA:42,0
DA:50,0
DA:97,0
DA:98,0
DA:99,0
DA:128,7
DA:129,7
DA:130,7
DA:242,0
DA:243,0
DA:244,0
DA:250,0
DA:251,0
DA:252,0
DA:258,0
DA:259,0
DA:260,0
DA:266,0
DA:267,0
DA:268,0
DA:276,17
DA:279,17
DA:280,0
DA:281,0
DA:282,0
DA:283,0
DA:284,0
DA:285,17
DA:287,17
DA:288,17
DA:290,17
DA:291,17
DA:293,17
DA:294,6
DA:295,6
DA:296,6
DA:298,6
DA:299,3
DA:301,3
DA:302,2
DA:304,1
DA:305,1
DA:306,1
DA:307,1
DA:312,5
DA:316,16
DA:317,5
DA:318,5
DA:320,16
DA:321,17
DA:330,0
DA:331,0
DA:332,0
DA:333,0
DA:334,0
DA:335,0
DA:336,0
DA:337,0
DA:338,0
DA:339,0
DA:352,7
DA:353,7
DA:354,7
DA:355,0
DA:356,7
DA:357,7
DA:358,7
DA:359,7
DA:360,0
DA:361,0
DA:362,0
DA:363,7
DA:364,7
DA:365,0
DA:366,0
DA:367,0
DA:368,7
DA:369,22
DA:370,15
DA:371,0
DA:372,0
DA:373,0
DA:374,0
DA:375,15
DA:376,15
DA:377,0
DA:378,0
DA:379,0
DA:380,0
DA:381,15
DA:382,15
DA:383,0
DA:384,0
DA:385,0
DA:386,0
DA:387,15
DA:391,7
DA:392,0
DA:393,0
DA:394,0
DA:395,7
DA:396,7
DA:397,0
DA:398,0
DA:399,0
DA:400,7
DA:401,7
DA:402,7
DA:403,7
DA:404,7
DA:406,0
DA:407,0
DA:408,0
DA:409,0
DA:410,7
DA:411,7
DA:412,0
DA:413,0
DA:414,0
DA:415,7
DA:416,7
DA:417,0
DA:418,0
DA:419,0
DA:420,7
DA:421,7
DA:422,7
DA:423,7
DA:424,0
DA:425,0
DA:426,0
DA:427,7
DA:428,7
DA:429,7
DA:430,7
DA:431,0
DA:432,0
DA:433,0
DA:434,7
DA:435,7
DA:436,0
DA:437,0
DA:438,0
DA:439,7
DA:440,7
DA:441,7
DA:442,7
DA:443,0
DA:444,0
DA:445,0
DA:446,7
DA:447,7
DA:448,7
DA:449,7
DA:450,0
DA:451,0
DA:452,0
DA:453,7
DA:454,7
DA:455,7
DA:456,7
DA:457,0
DA:458,0
DA:459,0
DA:460,7
DA:461,7
DA:462,0
DA:463,0
DA:464,0
DA:465,7
DA:466,7
DA:467,0
DA:468,0
DA:469,0
DA:470,7
DA:471,7
DA:472,7
DA:473,7
DA:474,0
DA:475,0
DA:476,0
DA:477,7
DA:480,7
DA:481,0
DA:483,0
DA:484,0
DA:485,0
DA:486,0
DA:487,0
DA:488,0
DA:489,0
DA:490,0
DA:491,0
DA:492,7
DA:495,7
DA:497,3
DA:498,7
DA:511,7
DA:512,7
DA:513,7
DA:516,12
DA:518,8
DA:519,8
DA:520,8
DA:521,8
DA:522,1
DA:523,1
DA:524,1
DA:525,1
DA:526,8
DA:529,7
DA:530,7
DA:531,7
DA:532,7
DA:533,0
DA:534,0
DA:535,0
DA:536,0
DA:537,7
DA:540,19
DA:541,14
DA:542,0
DA:543,0
DA:544,0
DA:545,0
DA:546,14
DA:548,14
DA:550,14
DA:551,1
DA:552,1
DA:553,1
DA:554,1
DA:555,13
DA:556,13
DA:557,13
DA:558,13
DA:559,1
DA:560,1
DA:561,1
DA:562,1
DA:563,12
DA:568,5
DA:571,6
DA:572,5
DA:573,5
DA:574,1
DA:575,1
DA:576,1
DA:577,1
DA:578,4
DA:581,3
DA:582,7
DA:593,7
DA:594,7
DA:595,7
DA:596,7
DA:597,3
DA:598,7
DA:606,1
DA:607,1
DA:608,1
DA:609,1
DA:610,1
DA:611,1
DA:612,1
DA:613,1
DA:616,1
DA:617,1
DA:618,1
DA:621,1
DA:622,1
DA:623,1
DA:624,1
DA:625,1
DA:628,1
DA:629,1
DA:630,1
DA:631,1
DA:632,1
DA:633,1
DA:636,1
DA:637,1
DA:638,1
DA:639,1
DA:640,1
DA:641,1
DA:642,1
DA:643,1
DA:644,1
DA:645,1
DA:646,1
DA:647,1
DA:648,1
DA:649,1
DA:650,1
DA:651,1
DA:652,1
DA:653,1
DA:654,1
DA:655,1
DA:656,1
DA:657,1
DA:658,1
DA:659,1
DA:660,1
DA:661,1
DA:662,1
DA:663,1
DA:664,1
DA:665,1
DA:666,1
DA:667,1
DA:668,1
DA:669,1
DA:670,1
DA:671,1
DA:672,1
DA:673,1
DA:674,1
DA:675,1
DA:676,1
DA:677,1
DA:678,1
DA:679,1
DA:680,1
DA:681,1
DA:682,1
DA:683,1
DA:684,1
DA:685,1
DA:686,1
DA:687,1
DA:688,1
DA:689,1
DA:690,1
DA:691,1
DA:692,1
DA:693,1
DA:694,1
DA:697,1
DA:698,1
DA:701,1
DA:702,1
DA:703,1
DA:704,1
DA:705,1
DA:706,1
DA:707,1
DA:708,1
DA:709,1
DA:710,1
DA:711,1
DA:712,1
DA:713,1
DA:714,1
DA:715,1
DA:716,1
DA:717,1
DA:718,1
DA:719,1
DA:720,1
DA:721,1
DA:722,1
DA:723,1
DA:724,1
DA:725,1
DA:726,1
DA:727,1
DA:728,1
DA:729,1
DA:730,1
DA:731,1
DA:732,1
DA:733,1
DA:734,1
DA:735,1
DA:736,1
DA:737,1
DA:738,1
DA:739,1
DA:740,1
DA:741,1
DA:742,1
DA:743,1
DA:744,1
DA:745,1
DA:746,1
DA:747,1
DA:748,1
DA:749,1
DA:750,1
DA:751,1
DA:752,1
DA:753,1
DA:754,1
DA:755,1
DA:756,1
DA:757,1
DA:758,1
DA:759,1
DA:760,1
DA:761,1
DA:762,1
DA:763,1
DA:764,1
DA:765,1
DA:766,1
DA:767,1
DA:768,1
DA:769,1
DA:770,1
DA:771,1
DA:772,1
DA:773,1
DA:774,1
DA:775,1
DA:776,1
DA:777,1
DA:778,0
DA:781,1
DA:784,1
DA:785,1
DA:786,1
DA:787,1
DA:788,1
DA:789,1
DA:790,1
DA:791,1
DA:792,1
DA:793,1
DA:794,1
DA:795,1
DA:796,1
DA:797,1
DA:798,1
DA:799,1
DA:800,1
DA:801,1
DA:802,1
DA:803,1
DA:804,1
DA:805,1
DA:806,1
DA:807,1
DA:808,1
DA:809,1
DA:810,1
DA:811,1
DA:812,1
DA:813,1
DA:814,1
DA:815,1
DA:816,1
DA:817,1
DA:818,1
DA:819,1
DA:820,1
DA:821,1
DA:822,1
DA:823,1
DA:824,1
DA:825,1
DA:826,1
DA:827,1
DA:828,1
DA:829,1
DA:830,1
DA:831,1
DA:832,1
DA:833,1
DA:834,1
DA:835,1
DA:836,1
DA:837,1
DA:838,1
DA:839,1
DA:840,1
DA:841,1
DA:844,1
DA:845,1
DA:846,1
DA:847,1
DA:848,1
DA:849,1
DA:850,1
DA:851,1
DA:852,1
DA:853,1
DA:854,1
DA:855,1
DA:856,1
DA:857,1
DA:858,1
DA:859,1
DA:860,1
DA:861,1
DA:862,1
DA:863,1
DA:864,1
DA:865,1
DA:866,1
DA:867,1
DA:868,1
DA:869,1
DA:870,1
DA:871,1
DA:872,1
DA:873,1
DA:874,1
DA:875,1
DA:876,1
DA:877,1
DA:878,1
DA:879,1
DA:880,1
DA:881,1
DA:882,1
DA:883,1
DA:884,1
DA:885,1
DA:886,1
DA:887,1
DA:888,1
DA:889,1
DA:890,1
DA:891,1
DA:892,1
DA:893,1
DA:894,1
DA:895,1
DA:896,1
DA:897,1
DA:898,1
DA:899,1
DA:900,1
DA:901,1
DA:904,1
DA:905,1
DA:906,1
DA:907,1
DA:908,1
DA:909,1
DA:910,1
DA:911,1
DA:912,1
DA:913,1
DA:914,1
DA:915,1
DA:916,1
DA:917,1
DA:918,1
DA:919,1
DA:920,1
DA:921,1
DA:922,1
DA:923,1
DA:924,1
DA:925,1
DA:926,1
DA:927,1
DA:928,1
DA:929,1
DA:930,1
DA:931,1
DA:932,1
DA:933,1
DA:934,1
DA:935,1
DA:936,1
DA:937,1
DA:938,1
DA:939,1
DA:940,1
DA:941,1
DA:942,1
DA:943,1
DA:944,1
DA:945,1
DA:946,1
DA:947,1
DA:948,1
DA:949,1
DA:950,1
DA:951,1
DA:952,1
DA:953,1
DA:954,1
DA:955,1
DA:956,1
DA:957,1
DA:958,1
DA:959,1
DA:960,1
DA:961,1
DA:962,1
DA:963,1
DA:964,1
BRF:0
BRH:0
LF:615
LH:490
end_of_record
SF:/Users/nami/github/openintentsframework/oif-solvers/crates/solver-config/src/loader.rs
FN:86,_RNvMNtCs7ipH10p3E4C_13solver_config6loaderNtB2_12ConfigLoader16extract_includes
FN:114,_RNvMNtCs7ipH10p3E4C_13solver_config6loaderNtB2_12ConfigLoader16load_and_combine
FN:65,_RNvMNtCs7ipH10p3E4C_13solver_config6loaderNtB2_12ConfigLoader9load_file
FN:196,_RNCNvNtNtCs7ipH10p3E4C_13solver_config6loader5testss_23test_single_file_config0B7_
FN:262,_RNCNvNtNtCs7ipH10p3E4C_13solver_config6loader5testss_25test_config_with_includes0B7_
FN:367,_RNCNvNtNtCs7ipH10p3E4C_13solver_config6loader5testss_27test_self_include_detection0B7_
FN:338,_RNCNvNtNtCs7ipH10p3E4C_13solver_config6loader5testss_28test_duplicate_section_error0B7_
FN:196,_RNvNtNtCs7ipH10p3E4C_13solver_config6loader5testss_23test_single_file_config
FN:262,_RNvNtNtCs7ipH10p3E4C_13solver_config6loader5testss_25test_config_with_includes
FN:367,_RNvNtNtCs7ipH10p3E4C_13solver_config6loader5testss_27test_self_include_detection
FN:338,_RNvNtNtCs7ipH10p3E4C_13solver_config6loader5testss_28test_duplicate_section_error
FN:31,_RINvMNtCs7ipH10p3E4C_13solver_config6loaderNtB3_12ConfigLoader11load_configRNtNtCscOYdFFY2T5N_3std4path7PathBufEB5_
FN:31,_RINvMNtCs7ipH10p3E4C_13solver_config6loaderNtB3_12ConfigLoader11load_configReEB5_
FN:168,_RINvMNtCs7ipH10p3E4C_13solver_config6loaderNtB3_12ConfigLoader12resolve_pathRNtNtCscOYdFFY2T5N_3std4path7PathBufEB5_
FN:168,_RINvMNtCs7ipH10p3E4C_13solver_config6loaderNtB3_12ConfigLoader12resolve_pathReEB5_
FN:22,_RINvMNtCs7ipH10p3E4C_13solver_config6loaderNtB3_12ConfigLoader3newRNtNtCscOYdFFY2T5N_3std4path4PathEB5_
FN:34,_RNCINvMNtCs7ipH10p3E4C_13solver_config6loaderNtB5_12ConfigLoader11load_configRNtNtCscOYdFFY2T5N_3std4path7PathBufE0B7_
FN:34,_RNCINvMNtCs7ipH10p3E4C_13solver_config6loaderNtB5_12ConfigLoader11load_configReE0B7_
FN:56,_RNCNCINvMNtCs7ipH10p3E4C_13solver_config6loaderNtB7_12ConfigLoader11load_configRNtNtCscOYdFFY2T5N_3std4path7PathBufE00B9_
FN:56,_RNCNCINvMNtCs7ipH10p3E4C_13solver_config6loaderNtB7_12ConfigLoader11load_configReE00B9_
FN:67,_RNCNCNvMNtCs7ipH10p3E4C_13solver_config6loaderNtB6_12ConfigLoader9load_file00B8_
FN:119,_RNCNvMNtCs7ipH10p3E4C_13solver_config6loaderNtB4_12ConfigLoader16load_and_combine0B6_
FN:65,_RNCNvMNtCs7ipH10p3E4C_13solver_config6loaderNtB4_12ConfigLoader9load_file0B6_
FNDA:4,_RNvMNtCs7ipH10p3E4C_13solver_config6loaderNtB2_12ConfigLoader16extract_includes
FNDA:3,_RNvMNtCs7ipH10p3E4C_13solver_config6loaderNtB2_12ConfigLoader16load_and_combine
FNDA:8,_RNvMNtCs7ipH10p3E4C_13solver_config6loaderNtB2_12ConfigLoader9load_file
FNDA:1,_RNCNvNtNtCs7ipH10p3E4C_13solver_config6loader5testss_23test_single_file_config0B7_
FNDA:1,_RNCNvNtNtCs7ipH10p3E4C_13solver_config6loader5testss_25test_config_with_includes0B7_
FNDA:1,_RNCNvNtNtCs7ipH10p3E4C_13solver_config6loader5testss_27test_self_include_detection0B7_
FNDA:1,_RNCNvNtNtCs7ipH10p3E4C_13solver_config6loader5testss_28test_duplicate_section_error0B7_
FNDA:1,_RNvNtNtCs7ipH10p3E4C_13solver_config6loader5testss_23test_single_file_config
FNDA:1,_RNvNtNtCs7ipH10p3E4C_13solver_config6loader5testss_25test_config_with_includes
FNDA:1,_RNvNtNtCs7ipH10p3E4C_13solver_config6loader5testss_27test_self_include_detection
FNDA:1,_RNvNtNtCs7ipH10p3E4C_13solver_config6loader5testss_28test_duplicate_section_error
FNDA:1,_RINvMNtCs7ipH10p3E4C_13solver_config6loaderNtB3_12ConfigLoader11load_configRNtNtCscOYdFFY2T5N_3std4path7PathBufEB5_
FNDA:3,_RINvMNtCs7ipH10p3E4C_13solver_config6loaderNtB3_12ConfigLoader11load_configReEB5_
FNDA:5,_RINvMNtCs7ipH10p3E4C_13solver_config6loaderNtB3_12ConfigLoader12resolve_pathRNtNtCscOYdFFY2T5N_3std4path7PathBufEB5_
FNDA:3,_RINvMNtCs7ipH10p3E4C_13solver_config6loaderNtB3_12ConfigLoader12resolve_pathReEB5_
FNDA:4,_RINvMNtCs7ipH10p3E4C_13solver_config6loaderNtB3_12ConfigLoader3newRNtNtCscOYdFFY2T5N_3std4path4PathEB5_
FNDA:1,_RNCINvMNtCs7ipH10p3E4C_13solver_config6loaderNtB5_12ConfigLoader11load_configRNtNtCscOYdFFY2T5N_3std4path7PathBufE0B7_
FNDA:3,_RNCINvMNtCs7ipH10p3E4C_13solver_config6loaderNtB5_12ConfigLoader11load_configReE0B7_
FNDA:0,_RNCNCINvMNtCs7ipH10p3E4C_13solver_config6loaderNtB7_12ConfigLoader11load_configRNtNtCscOYdFFY2T5N_3std4path7PathBufE00B9_
FNDA:0,_RNCNCINvMNtCs7ipH10p3E4C_13solver_config6loaderNtB7_12ConfigLoader11load_configReE00B9_
FNDA:0,_RNCNCNvMNtCs7ipH10p3E4C_13solver_config6loaderNtB6_12ConfigLoader9load_file00B8_
FNDA:3,_RNCNvMNtCs7ipH10p3E4C_13solver_config6loaderNtB4_12ConfigLoader16load_and_combine0B6_
FNDA:8,_RNCNvMNtCs7ipH10p3E4C_13solver_config6loaderNtB4_12ConfigLoader9load_file0B6_
FNF:19
FNH:17
DA:22,4
DA:23,4
DA:24,4
DA:25,4
DA:26,4
DA:27,4
DA:28,4
DA:31,4
DA:32,4
DA:33,4
DA:34,4
DA:35,4
DA:38,4
DA:39,4
DA:42,4
DA:45,4
DA:46,1
DA:47,1
DA:48,3
DA:51,3
DA:52,3
DA:53,3
DA:56,1
DA:57,0
DA:58,1
DA:59,1
DA:61,1
DA:62,4
DA:65,8
DA:67,8
DA:68,0
DA:69,0
DA:70,0
DA:71,0
DA:72,8
DA:74,8
DA:75,1
DA:76,1
DA:77,1
DA:78,1
DA:79,7
DA:81,7
DA:82,7
DA:83,8
DA:86,4
DA:87,4
DA:90,4
DA:91,3
DA:92,7
DA:93,4
DA:94,4
DA:95,4
DA:96,0
DA:97,0
DA:98,0
DA:101,0
DA:102,0
DA:103,0
DA:104,0
DA:105,0
DA:106,0
DA:108,1
DA:110,4
DA:111,4
DA:114,3
DA:115,3
DA:116,3
DA:117,3
DA:118,3
DA:119,3
DA:121,3
DA:122,3
DA:123,3
DA:126,3
DA:127,3
DA:128,3
DA:129,3
DA:130,3
DA:131,0
DA:134,5
DA:135,4
DA:136,4
DA:137,3
DA:140,3
DA:141,8
DA:142,8
DA:143,1
DA:144,1
DA:145,1
DA:146,1
DA:147,1
DA:148,1
DA:149,1
DA:150,7
DA:151,7
DA:152,7
DA:156,2
DA:157,9
DA:158,7
DA:159,7
DA:160,0
DA:161,0
DA:164,1
DA:165,3
DA:168,8
DA:169,8
DA:171,8
DA:172,1
DA:174,7
DA:178,8
DA:179,0
DA:180,0
DA:181,0
DA:182,0
DA:183,8
DA:184,8
DA:185,8
DA:186,8
DA:196,1
DA:197,1
DA:198,1
DA:199,1
DA:200,1
DA:201,1
DA:202,1
DA:203,1
DA:204,1
DA:205,1
DA:206,1
DA:207,1
DA:208,1
DA:209,1
DA:210,1
DA:211,1
DA:212,1
DA:213,1
DA:214,1
DA:215,1
DA:216,1
DA:217,1
DA:218,1
DA:219,1
DA:220,1
DA:221,1
DA:222,1
DA:223,1
DA:224,1
DA:225,1
DA:226,1
DA:227,1
DA:228,1
DA:229,1
DA:230,1
DA:231,1
DA:232,1
DA:233,1
DA:234,1
DA:235,1
DA:236,1
DA:237,1
DA:238,1
DA:239,1
DA:240,1
DA:241,1
DA:242,1
DA:243,1
DA:244,1
DA:245,1
DA:246,1
DA:247,1
DA:248,1
DA:249,1
DA:250,1
DA:251,1
DA:252,1
DA:253,1
DA:254,1
DA:255,1
DA:256,1
DA:257,1
DA:258,1
DA:259,1
DA:262,1
DA:263,1
DA:264,1
DA:265,1
DA:266,1
DA:267,1
DA:268,1
DA:269,1
DA:270,1
DA:271,1
DA:272,1
DA:273,1
DA:274,1
DA:275,1
DA:276,1
DA:277,1
DA:278,1
DA:279,1
DA:280,1
DA:281,1
DA:282,1
DA:283,1
DA:284,1
DA:285,1
DA:286,1
DA:287,1
DA:288,1
DA:289,1
DA:290,1
DA:291,1
DA:292,1
DA:293,1
DA:294,1
DA:295,1
DA:296,1
DA:297,1
DA:298,1
DA:299,1
DA:300,1
DA:301,1
DA:302,1
DA:303,1
DA:304,1
DA:305,1
DA:306,1
DA:307,1
DA:308,1
DA:309,1
DA:310,1
DA:311,1
DA:312,1
DA:313,1
DA:314,1
DA:315,1
DA:316,1
DA:317,1
DA:318,1
DA:319,1
DA:320,1
DA:321,1
DA:322,1
DA:323,1
DA:324,1
DA:325,1
DA:326,1
DA:327,1
DA:328,1
DA:329,1
DA:330,1
DA:331,1
DA:332,1
DA:333,1
DA:334,1
DA:335,1
DA:338,1
DA:339,1
DA:340,1
DA:341,1
DA:342,1
DA:343,1
DA:344,1
DA:345,1
DA:346,1
DA:347,1
DA:348,1
DA:349,1
DA:350,1
DA:351,1
DA:352,1
DA:353,1
DA:354,1
DA:355,1
DA:356,1
DA:357,1
DA:358,1
DA:359,1
DA:360,1
DA:361,1
DA:362,1
DA:363,1
DA:364,1
DA:367,1
DA:368,1
DA:369,1
DA:370,1
DA:371,1
DA:372,1
DA:373,1
DA:374,1
DA:375,1
DA:376,1
DA:377,1
DA:378,1
DA:379,1
DA:380,1
DA:381,1
DA:382,1
DA:383,1
DA:384,1
DA:385,1
DA:386,1
BRF:0
BRH:0
LF:489
LH:462
end_of_record
SF:/Users/nami/github/openintentsframework/oif-solvers/crates/solver-types/src/account.rs
FN:31,_RINvXs_NtCsewKG4Aofwh8_12solver_types7accountNtB5_7AddressNtNtCsl7RnPhtMn4I_5serde2de11Deserialize11deserializeINtNtBW_5value17UsizeDeserializerNtNtNtCs2bnjsVAU1C3_4toml2de5error5ErrorEECs7ipH10p3E4C_13solver_config
FN:31,_RINvXs_NtCsewKG4Aofwh8_12solver_types7accountNtB5_7AddressNtNtCsl7RnPhtMn4I_5serde2de11Deserialize11deserializeINtNtBW_5value18StringDeserializerNtNtNtCs2bnjsVAU1C3_4toml2de5error5ErrorEECs7ipH10p3E4C_13solver_config
FN:31,_RINvXs_NtCsewKG4Aofwh8_12solver_types7accountNtB5_7AddressNtNtCsl7RnPhtMn4I_5serde2de11Deserialize11deserializeINtNvNtNtBY_9___private2de13missing_field24MissingFieldDeserializerNtNtNtCs2bnjsVAU1C3_4toml2de5error5ErrorEECs7ipH10p3E4C_13solver_config
FN:31,_RINvXs_NtCsewKG4Aofwh8_12solver_types7accountNtB5_7AddressNtNtCsl7RnPhtMn4I_5serde2de11Deserialize11deserializeNtNtNtNtCs2bnjsVAU1C3_4toml2de12deserializer5value17ValueDeserializerECs7ipH10p3E4C_13solver_config
FN:38,_RNCINvXs_NtCsewKG4Aofwh8_12solver_types7accountNtB7_7AddressNtNtCsl7RnPhtMn4I_5serde2de11Deserialize11deserializeINtNtBY_5value17UsizeDeserializerNtNtNtCs2bnjsVAU1C3_4toml2de5error5ErrorEE0Cs7ipH10p3E4C_13solver_config
FN:38,_RNCINvXs_NtCsewKG4Aofwh8_12solver_types7accountNtB7_7AddressNtNtCsl7RnPhtMn4I_5serde2de11Deserialize11deserializeINtNtBY_5value18StringDeserializerNtNtNtCs2bnjsVAU1C3_4toml2de5error5ErrorEE0Cs7ipH10p3E4C_13solver_config
FN:38,_RNCINvXs_NtCsewKG4Aofwh8_12solver_types7accountNtB7_7AddressNtNtCsl7RnPhtMn4I_5serde2de11Deserialize11deserializeINtNvNtNtB10_9___private2de13missing_field24MissingFieldDeserializerNtNtNtCs2bnjsVAU1C3_4toml2de5error5ErrorEE0Cs7ipH10p3E4C_13solver_config
FN:38,_RNCINvXs_NtCsewKG4Aofwh8_12solver_types7accountNtB7_7AddressNtNtCsl7RnPhtMn4I_5serde2de11Deserialize11deserializeNtNtNtNtCs2bnjsVAU1C3_4toml2de12deserializer5value17ValueDeserializerE0Cs7ipH10p3E4C_13solver_config
FN:20,_RINvXNtCsewKG4Aofwh8_12solver_types7accountNtB3_7AddressNtNtCsl7RnPhtMn4I_5serde3ser9Serialize9serializepEB5_
FN:31,_RINvXs_NtCsewKG4Aofwh8_12solver_types7accountNtB5_7AddressNtNtCsl7RnPhtMn4I_5serde2de11Deserialize11deserializepEB7_
FN:38,_RNCINvXs_NtCsewKG4Aofwh8_12solver_types7accountNtB7_7AddressNtNtCsl7RnPhtMn4I_5serde2de11Deserialize11deserializepE0B9_
FN:109,_RNCNvXs2_NtCsewKG4Aofwh8_12solver_types7accountNtB7_11TransactionINtNtCsfvfooZQ3Axs_4core7convert4FromNtNtNtCs1G4fduLUURY_19alloy_rpc_types_eth11transaction7request18TransactionRequestE4from0B9_
FN:128,_RNCNvXs3_NtCsewKG4Aofwh8_12solver_types7accountNtNtNtCs1G4fduLUURY_19alloy_rpc_types_eth11transaction7request18TransactionRequestINtNtCsfvfooZQ3Axs_4core7convert4FromNtB7_11TransactionE4from0B9_
FNDA:0,_RINvXs_NtCsewKG4Aofwh8_12solver_types7accountNtB5_7AddressNtNtCsl7RnPhtMn4I_5serde2de11Deserialize11deserializeINtNtBW_5value17UsizeDeserializerNtNtNtCs2bnjsVAU1C3_4toml2de5error5ErrorEECs7ipH10p3E4C_13solver_config
FNDA:0,_RINvXs_NtCsewKG4Aofwh8_12solver_types7accountNtB5_7AddressNtNtCsl7RnPhtMn4I_5serde2de11Deserialize11deserializeINtNtBW_5value18StringDeserializerNtNtNtCs2bnjsVAU1C3_4toml2de5error5ErrorEECs7ipH10p3E4C_13solver_config
FNDA:0,_RINvXs_NtCsewKG4Aofwh8_12solver_types7accountNtB5_7AddressNtNtCsl7RnPhtMn4I_5serde2de11Deserialize11deserializeINtNvNtNtBY_9___private2de13missing_field24MissingFieldDeserializerNtNtNtCs2bnjsVAU1C3_4toml2de5error5ErrorEECs7ipH10p3E4C_13solver_config
FNDA:45,_RINvXs_NtCsewKG4Aofwh8_12solver_types7accountNtB5_7AddressNtNtCsl7RnPhtMn4I_5serde2de11Deserialize11deserializeNtNtNtNtCs2bnjsVAU1C3_4toml2de12deserializer5value17ValueDeserializerECs7ipH10p3E4C_13solver_config
FNDA:0,_RNCINvXs_NtCsewKG4Aofwh8_12solver_types7accountNtB7_7AddressNtNtCsl7RnPhtMn4I_5serde2de11Deserialize11deserializeINtNtBY_5value17UsizeDeserializerNtNtNtCs2bnjsVAU1C3_4toml2de5error5ErrorEE0Cs7ipH10p3E4C_13solver_config
FNDA:0,_RNCINvXs_NtCsewKG4Aofwh8_12solver_types7accountNtB7_7AddressNtNtCsl7RnPhtMn4I_5serde2de11Deserialize11deserializeINtNtBY_5value18StringDeserializerNtNtNtCs2bnjsVAU1C3_4toml2de5error5ErrorEE0Cs7ipH10p3E4C_13solver_config
FNDA:0,_RNCINvXs_NtCsewKG4Aofwh8_12solver_types7accountNtB7_7AddressNtNtCsl7RnPhtMn4I_5serde2de11Deserialize11deserializeINtNvNtNtB10_9___private2de13missing_field24MissingFieldDeserializerNtNtNtCs2bnjsVAU1C3_4toml2de5error5ErrorEE0Cs7ipH10p3E4C_13solver_config
FNDA:0,_RNCINvXs_NtCsewKG4Aofwh8_12solver_types7accountNtB7_7AddressNtNtCsl7RnPhtMn4I_5serde2de11Deserialize11deserializeNtNtNtNtCs2bnjsVAU1C3_4toml2de12deserializer5value17ValueDeserializerE0Cs7ipH10p3E4C_13solver_config
FNDA:0,_RINvXNtCsewKG4Aofwh8_12solver_types7accountNtB3_7AddressNtNtCsl7RnPhtMn4I_5serde3ser9Serialize9serializepEB5_
FNDA:0,_RINvXs_NtCsewKG4Aofwh8_12solver_types7accountNtB5_7AddressNtNtCsl7RnPhtMn4I_5serde2de11Deserialize11deserializepEB7_
FNDA:0,_RNCINvXs_NtCsewKG4Aofwh8_12solver_types7accountNtB7_7AddressNtNtCsl7RnPhtMn4I_5serde2de11Deserialize11deserializepE0B9_
FNDA:0,_RNCNvXs2_NtCsewKG4Aofwh8_12solver_types7accountNtB7_11TransactionINtNtCsfvfooZQ3Axs_4core7convert4FromNtNtNtCs1G4fduLUURY_19alloy_rpc_types_eth11transaction7request18TransactionRequestE4from0B9_
FNDA:0,_RNCNvXs3_NtCsewKG4Aofwh8_12solver_types7accountNtNtNtCs1G4fduLUURY_19alloy_rpc_types_eth11transaction7request18TransactionRequestINtNtCsfvfooZQ3Axs_4core7convert4FromNtB7_11TransactionE4from0B9_
FNF:5
FNH:1
DA:20,0
DA:21,0
DA:22,0
DA:23,0
DA:24,0
DA:25,0
DA:26,0
DA:31,45
DA:32,45
DA:33,45
DA:34,45
DA:35,45
DA:36,45
DA:37,45
DA:38,45
DA:41,45
DA:42,0
DA:43,0
DA:44,0
DA:45,0
DA:46,45
DA:47,45
DA:48,45
DA:49,45
DA:109,0
DA:110,0
DA:111,0
DA:112,0
DA:128,0
DA:129,0
DA:130,0
DA:131,0
DA:132,0
BRF:0
BRH:0
LF:34
LH:13
end_of_record
SF:/Users/nami/github/openintentsframework/oif-solvers/crates/solver-types/src/api.rs
FN:311,_RINvNtNtCsewKG4Aofwh8_12solver_types3api10u256_serde11deserializepEB6_
FN:304,_RINvNtNtCsewKG4Aofwh8_12solver_types3api10u256_serde9serializepEB6_
FN:37,_RNCINvXs0_NvXNvNtCsewKG4Aofwh8_12solver_types3apis5_1__NtBd_14AvailableInputNtNtCsl7RnPhtMn4I_5serde2de11Deserialize11deserializeNtB8_9___VisitorNtB1e_7Visitor9visit_seqpE0Bf_
FN:51,_RNCINvXs0_NvXNvNtCsewKG4Aofwh8_12solver_types3apis7_1__NtBd_15RequestedOutputNtNtCsl7RnPhtMn4I_5serde2de11Deserialize11deserializeNtB8_9___VisitorNtB1f_7Visitor9visit_seqpE0Bf_
FN:11,_RNCINvXs0_NvXNvNtCsewKG4Aofwh8_12solver_types3apis_1__NtBd_11AssetAmountNtNtCsl7RnPhtMn4I_5serde2de11Deserialize11deserializeNtB8_9___VisitorNtB1a_7Visitor9visit_seqpE0Bf_
FNDA:0,_RINvNtNtCsewKG4Aofwh8_12solver_types3api10u256_serde11deserializepEB6_
FNDA:0,_RINvNtNtCsewKG4Aofwh8_12solver_types3api10u256_serde9serializepEB6_
FNDA:0,_RNCINvXs0_NvXNvNtCsewKG4Aofwh8_12solver_types3apis5_1__NtBd_14AvailableInputNtNtCsl7RnPhtMn4I_5serde2de11Deserialize11deserializeNtB8_9___VisitorNtB1e_7Visitor9visit_seqpE0Bf_
FNDA:0,_RNCINvXs0_NvXNvNtCsewKG4Aofwh8_12solver_types3apis7_1__NtBd_15RequestedOutputNtNtCsl7RnPhtMn4I_5serde2de11Deserialize11deserializeNtB8_9___VisitorNtB1f_7Visitor9visit_seqpE0Bf_
FNDA:0,_RNCINvXs0_NvXNvNtCsewKG4Aofwh8_12solver_types3apis_1__NtBd_11AssetAmountNtNtCsl7RnPhtMn4I_5serde2de11Deserialize11deserializeNtB8_9___VisitorNtB1a_7Visitor9visit_seqpE0Bf_
FNF:5
FNH:0
DA:11,0
DA:37,0
DA:51,0
DA:304,0
DA:305,0
DA:306,0
DA:307,0
DA:308,0
DA:309,0
DA:311,0
DA:312,0
DA:313,0
DA:314,0
DA:315,0
DA:316,0
DA:317,0
BRF:0
BRH:0
LF:16
LH:0
end_of_record
SF:/Users/nami/github/openintentsframework/oif-solvers/crates/solver-types/src/networks.rs
FN:142,_RINvNtCsewKG4Aofwh8_12solver_types8networks20deserialize_networksINtNtNtCsl7RnPhtMn4I_5serde2de5value17UsizeDeserializerNtNtNtCs2bnjsVAU1C3_4toml2de5error5ErrorEECs7ipH10p3E4C_13solver_config
FN:142,_RINvNtCsewKG4Aofwh8_12solver_types8networks20deserialize_networksINtNtNtCsl7RnPhtMn4I_5serde2de5value18StringDeserializerNtNtNtCs2bnjsVAU1C3_4toml2de5error5ErrorEECs7ipH10p3E4C_13solver_config
FN:142,_RINvNtCsewKG4Aofwh8_12solver_types8networks20deserialize_networksNtNtNtNtCs2bnjsVAU1C3_4toml2de12deserializer5value17ValueDeserializerECs7ipH10p3E4C_13solver_config
FN:152,_RNCINvNtCsewKG4Aofwh8_12solver_types8networks20deserialize_networksINtNtNtCsl7RnPhtMn4I_5serde2de5value17UsizeDeserializerNtNtNtCs2bnjsVAU1C3_4toml2de5error5ErrorEE0Cs7ipH10p3E4C_13solver_config
FN:152,_RNCINvNtCsewKG4Aofwh8_12solver_types8networks20deserialize_networksINtNtNtCsl7RnPhtMn4I_5serde2de5value18StringDeserializerNtNtNtCs2bnjsVAU1C3_4toml2de5error5ErrorEE0Cs7ipH10p3E4C_13solver_config
FN:152,_RNCINvNtCsewKG4Aofwh8_12solver_types8networks20deserialize_networksNtNtNtNtCs2bnjsVAU1C3_4toml2de12deserializer5value17ValueDeserializerE0Cs7ipH10p3E4C_13solver_config
FN:103,_RNCNvMs_NtCsewKG4Aofwh8_12solver_types8networksNtB6_13NetworkConfig10get_ws_url0B8_
FN:96,_RNCNvMs_NtCsewKG4Aofwh8_12solver_types8networksNtB6_13NetworkConfig12get_http_url0B8_
FN:118,_RNCNvMs_NtCsewKG4Aofwh8_12solver_types8networksNtB6_13NetworkConfig15get_all_ws_urls0B8_
FN:110,_RNCNvMs_NtCsewKG4Aofwh8_12solver_types8networksNtB6_13NetworkConfig17get_all_http_urls0B8_
FN:47,_RNvMNtCsewKG4Aofwh8_12solver_types8networksNtB2_11RpcEndpoint4both
FN:39,_RNvMNtCsewKG4Aofwh8_12solver_types8networksNtB2_11RpcEndpoint7ws_only
FN:31,_RNvMNtCsewKG4Aofwh8_12solver_types8networksNtB2_11RpcEndpoint9http_only
FN:100,_RNvMs_NtCsewKG4Aofwh8_12solver_types8networksNtB4_13NetworkConfig10get_ws_url
FN:93,_RNvMs_NtCsewKG4Aofwh8_12solver_types8networksNtB4_13NetworkConfig12get_http_url
FN:115,_RNvMs_NtCsewKG4Aofwh8_12solver_types8networksNtB4_13NetworkConfig15get_all_ws_urls
FN:107,_RNvMs_NtCsewKG4Aofwh8_12solver_types8networksNtB4_13NetworkConfig17get_all_http_urls
FN:142,_RINvNtCsewKG4Aofwh8_12solver_types8networks20deserialize_networkspEB4_
FN:152,_RNCINvNtCsewKG4Aofwh8_12solver_types8networks20deserialize_networkspE0B6_
FNDA:0,_RINvNtCsewKG4Aofwh8_12solver_types8networks20deserialize_networksINtNtNtCsl7RnPhtMn4I_5serde2de5value17UsizeDeserializerNtNtNtCs2bnjsVAU1C3_4toml2de5error5ErrorEECs7ipH10p3E4C_13solver_config
FNDA:0,_RINvNtCsewKG4Aofwh8_12solver_types8networks20deserialize_networksINtNtNtCsl7RnPhtMn4I_5serde2de5value18StringDeserializerNtNtNtCs2bnjsVAU1C3_4toml2de5error5ErrorEECs7ipH10p3E4C_13solver_config
FNDA:7,_RINvNtCsewKG4Aofwh8_12solver_types8networks20deserialize_networksNtNtNtNtCs2bnjsVAU1C3_4toml2de12deserializer5value17ValueDeserializerECs7ipH10p3E4C_13solver_config
FNDA:0,_RNCINvNtCsewKG4Aofwh8_12solver_types8networks20deserialize_networksINtNtNtCsl7RnPhtMn4I_5serde2de5value17UsizeDeserializerNtNtNtCs2bnjsVAU1C3_4toml2de5error5ErrorEE0Cs7ipH10p3E4C_13solver_config
FNDA:0,_RNCINvNtCsewKG4Aofwh8_12solver_types8networks20deserialize_networksINtNtNtCsl7RnPhtMn4I_5serde2de5value18StringDeserializerNtNtNtCs2bnjsVAU1C3_4toml2de5error5ErrorEE0Cs7ipH10p3E4C_13solver_config
FNDA:0,_RNCINvNtCsewKG4Aofwh8_12solver_types8networks20deserialize_networksNtNtNtNtCs2bnjsVAU1C3_4toml2de12deserializer5value17ValueDeserializerE0Cs7ipH10p3E4C_13solver_config
FNDA:0,_RNCNvMs_NtCsewKG4Aofwh8_12solver_types8networksNtB6_13NetworkConfig10get_ws_url0B8_
FNDA:0,_RNCNvMs_NtCsewKG4Aofwh8_12solver_types8networksNtB6_13NetworkConfig12get_http_url0B8_
FNDA:0,_RNCNvMs_NtCsewKG4Aofwh8_12solver_types8networksNtB6_13NetworkConfig15get_all_ws_urls0B8_
FNDA:0,_RNCNvMs_NtCsewKG4Aofwh8_12solver_types8networksNtB6_13NetworkConfig17get_all_http_urls0B8_
FNDA:0,_RNvMNtCsewKG4Aofwh8_12solver_types8networksNtB2_11RpcEndpoint4both
FNDA:0,_RNvMNtCsewKG4Aofwh8_12solver_types8networksNtB2_11RpcEndpoint7ws_only
FNDA:0,_RNvMNtCsewKG4Aofwh8_12solver_types8networksNtB2_11RpcEndpoint9http_only
FNDA:0,_RNvMs_NtCsewKG4Aofwh8_12solver_types8networksNtB4_13NetworkConfig10get_ws_url
FNDA:0,_RNvMs_NtCsewKG4Aofwh8_12solver_types8networksNtB4_13NetworkConfig12get_http_url
FNDA:0,_RNvMs_NtCsewKG4Aofwh8_12solver_types8networksNtB4_13NetworkConfig15get_all_ws_urls
FNDA:0,_RNvMs_NtCsewKG4Aofwh8_12solver_types8networksNtB4_13NetworkConfig17get_all_http_urls
FNDA:0,_RINvNtCsewKG4Aofwh8_12solver_types8networks20deserialize_networkspEB4_
FNDA:0,_RNCINvNtCsewKG4Aofwh8_12solver_types8networks20deserialize_networkspE0B6_
FNF:13
FNH:1
DA:31,0
DA:32,0
DA:33,0
DA:34,0
DA:35,0
DA:36,0
DA:39,0
DA:40,0
DA:41,0
DA:42,0
DA:43,0
DA:44,0
DA:47,0
DA:48,0
DA:49,0
DA:50,0
DA:51,0
DA:52,0
DA:93,0
DA:94,0
DA:95,0
DA:96,0
DA:97,0
DA:100,0
DA:101,0
DA:102,0
DA:103,0
DA:104,0
DA:107,0
DA:108,0
DA:109,0
DA:110,0
DA:111,0
DA:112,0
DA:115,0
DA:116,0
DA:117,0
DA:118,0
DA:119,0
DA:120,0
DA:142,7
DA:143,7
DA:144,7
DA:145,7
DA:146,7
DA:147,7
DA:149,22
DA:150,15
DA:151,15
DA:152,15
DA:153,15
DA:156,7
DA:157,7
BRF:0
BRH:0
LF:58
LH:13
end_of_record
SF:/Users/nami/github/openintentsframework/oif-solvers/crates/solver-types/src/secret_string.rs
FN:43,_RINvMNtCsewKG4Aofwh8_12solver_types13secret_stringNtB3_12SecretString12with_exposedppEB5_
FN:95,_RINvXs5_NtCsewKG4Aofwh8_12solver_types13secret_stringNtB6_12SecretStringNtNtCsl7RnPhtMn4I_5serde3ser9Serialize9serializepEB8_
FN:107,_RINvXs6_NtCsewKG4Aofwh8_12solver_types13secret_stringNtB6_12SecretStringNtNtCsl7RnPhtMn4I_5serde2de11Deserialize11deserializepEB8_
FNDA:0,_RINvMNtCsewKG4Aofwh8_12solver_types13secret_stringNtB3_12SecretString12with_exposedppEB5_
FNDA:0,_RINvXs5_NtCsewKG4Aofwh8_12solver_types13secret_stringNtB6_12SecretStringNtNtCsl7RnPhtMn4I_5serde3ser9Serialize9serializepEB8_
FNDA:0,_RINvXs6_NtCsewKG4Aofwh8_12solver_types13secret_stringNtB6_12SecretStringNtNtCsl7RnPhtMn4I_5serde2de11Deserialize11deserializepEB8_
FNF:3
FNH:0
DA:43,0
DA:44,0
DA:45,0
DA:46,0
DA:47,0
DA:48,0
DA:95,0
DA:96,0
DA:97,0
DA:98,0
DA:99,0
DA:100,0
DA:101,0
DA:102,0
DA:107,0
DA:108,0
DA:109,0
DA:110,0
DA:111,0
DA:112,0
DA:113,0
BRF:0
BRH:0
LF:21
LH:0
end_of_record
SF:/Users/nami/github/openintentsframework/oif-solvers/crates/solver-types/src/standards/eip7683.rs
FN:104,_RINvNtNtNtCsewKG4Aofwh8_12solver_types9standards7eip768310hex_string11deserializepEB8_
FN:97,_RINvNtNtNtCsewKG4Aofwh8_12solver_types9standards7eip768310hex_string9serializepEB8_
FN:66,_RNCINvXs0_NvXNvNtNtCsewKG4Aofwh8_12solver_types9standards7eip7683s3_1__NtBd_13MandateOutputNtNtCsl7RnPhtMn4I_5serde2de11Deserialize11deserializeNtB8_9___VisitorNtB1t_7Visitor9visit_seqpE0Bh_
FN:66,_RNCINvXs0_NvXNvNtNtCsewKG4Aofwh8_12solver_types9standards7eip7683s3_1__NtBd_13MandateOutputNtNtCsl7RnPhtMn4I_5serde2de11Deserialize11deserializeNtB8_9___VisitorNtB1t_7Visitor9visit_seqpEs_0Bh_
FNDA:0,_RINvNtNtNtCsewKG4Aofwh8_12solver_types9standards7eip768310hex_string11deserializepEB8_
FNDA:0,_RINvNtNtNtCsewKG4Aofwh8_12solver_types9standards7eip768310hex_string9serializepEB8_
FNDA:0,_RNCINvXs0_NvXNvNtNtCsewKG4Aofwh8_12solver_types9standards7eip7683s3_1__NtBd_13MandateOutputNtNtCsl7RnPhtMn4I_5serde2de11Deserialize11deserializeNtB8_9___VisitorNtB1t_7Visitor9visit_seqpE0Bh_
FNDA:0,_RNCINvXs0_NvXNvNtNtCsewKG4Aofwh8_12solver_types9standards7eip7683s3_1__NtBd_13MandateOutputNtNtCsl7RnPhtMn4I_5serde2de11Deserialize11deserializeNtB8_9___VisitorNtB1t_7Visitor9visit_seqpEs_0Bh_
FNF:3
FNH:0
DA:66,0
DA:97,0
DA:98,0
DA:99,0
DA:100,0
DA:101,0
DA:102,0
DA:104,0
DA:105,0
DA:106,0
DA:107,0
DA:108,0
DA:109,0
DA:110,0
DA:111,0
BRF:0
BRH:0
LF:15
LH:0
end_of_record
SF:/Users/nami/github/openintentsframework/oif-solvers/crates/solver-types/src/standards/eip7930.rs
FN:101,_RNCNvMNtNtCsewKG4Aofwh8_12solver_types9standards7eip7930NtB4_14InteropAddress8from_hex0B8_
FN:235,_RINvXs0_NtNtCsewKG4Aofwh8_12solver_types9standards7eip7930NtB6_14InteropAddressNtNtCsl7RnPhtMn4I_5serde3ser9Serialize9serializepEBa_
FN:244,_RINvXs1_NtNtCsewKG4Aofwh8_12solver_types9standards7eip7930NtB6_14InteropAddressNtNtCsl7RnPhtMn4I_5serde2de11Deserialize11deserializepEBa_
FNDA:0,_RNCNvMNtNtCsewKG4Aofwh8_12solver_types9standards7eip7930NtB4_14InteropAddress8from_hex0B8_
FNDA:0,_RINvXs0_NtNtCsewKG4Aofwh8_12solver_types9standards7eip7930NtB6_14InteropAddressNtNtCsl7RnPhtMn4I_5serde3ser9Serialize9serializepEBa_
FNDA:0,_RINvXs1_NtNtCsewKG4Aofwh8_12solver_types9standards7eip7930NtB6_14InteropAddressNtNtCsl7RnPhtMn4I_5serde2de11Deserialize11deserializepEBa_
FNF:3
FNH:0
DA:101,0
DA:235,0
DA:236,0
DA:237,0
DA:238,0
DA:239,0
DA:240,0
DA:244,0
DA:245,0
DA:246,0
DA:247,0
DA:248,0
DA:249,0
DA:250,0
BRF:0
BRH:0
LF:14
LH:0
end_of_record
SF:/Users/nami/github/openintentsframework/oif-solvers/crates/solver-types/src/utils/formatting.rs
FN:52,_RNCNvNtNtCsewKG4Aofwh8_12solver_types5utils10formatting17without_0x_prefix0B7_
FNDA:0,_RNCNvNtNtCsewKG4Aofwh8_12solver_types5utils10formatting17without_0x_prefix0B7_
FNF:1
FNH:0
DA:52,0
BRF:0
BRH:0
LF:1
LH:0
end_of_record
SF:/Users/nami/github/openintentsframework/oif-solvers/crates/solver-types/src/utils/helpers.rs
FN:13,_RNCNvNtNtCsewKG4Aofwh8_12solver_types5utils7helpers17current_timestamp0B7_
FNDA:0,_RNCNvNtNtCsewKG4Aofwh8_12solver_types5utils7helpers17current_timestamp0B7_
FNF:1
FNH:0
DA:13,0
BRF:0
BRH:0
LF:1
LH:0
end_of_record
SF:/Users/nami/github/openintentsframework/oif-solvers/crates/solver-types/src/validation.rs
FN:105,_RINvMs_NtCsewKG4Aofwh8_12solver_types10validationNtB5_5Field14with_validatorpEB7_
FN:88,_RINvMs_NtCsewKG4Aofwh8_12solver_types10validationNtB5_5Field3newpEB7_
FN:134,_RNvMs0_NtCsewKG4Aofwh8_12solver_types10validationNtB5_6Schema3new
FN:162,_RNvMs0_NtCsewKG4Aofwh8_12solver_types10validationNtB5_6Schema8validate
FN:223,_RNvNtCsewKG4Aofwh8_12solver_types10validation19validate_field_type
FN:72,_RNvXNtCsewKG4Aofwh8_12solver_types10validationNtB2_5FieldNtNtCsfvfooZQ3Axs_4core3fmt5Debug3fmt
FN:165,_RNCNvMs0_NtCsewKG4Aofwh8_12solver_types10validationNtB7_6Schema8validate0B9_
FN:181,_RNCNvMs0_NtCsewKG4Aofwh8_12solver_types10validationNtB7_6Schema8validates0_0B9_
FN:195,_RNCNvMs0_NtCsewKG4Aofwh8_12solver_types10validationNtB7_6Schema8validates1_0B9_
FN:175,_RNCNvMs0_NtCsewKG4Aofwh8_12solver_types10validationNtB7_6Schema8validates_0B9_
FN:241,_RNCNvNtCsewKG4Aofwh8_12solver_types10validation19validate_field_type0B5_
FN:288,_RNCNvNtCsewKG4Aofwh8_12solver_types10validation19validate_field_types0_0B5_
FN:277,_RNCNvNtCsewKG4Aofwh8_12solver_types10validation19validate_field_types_0B5_
FNDA:0,_RINvMs_NtCsewKG4Aofwh8_12solver_types10validationNtB5_5Field14with_validatorpEB7_
FNDA:0,_RINvMs_NtCsewKG4Aofwh8_12solver_types10validationNtB5_5Field3newpEB7_
FNDA:0,_RNvMs0_NtCsewKG4Aofwh8_12solver_types10validationNtB5_6Schema3new
FNDA:0,_RNvMs0_NtCsewKG4Aofwh8_12solver_types10validationNtB5_6Schema8validate
FNDA:0,_RNvNtCsewKG4Aofwh8_12solver_types10validation19validate_field_type
FNDA:0,_RNvXNtCsewKG4Aofwh8_12solver_types10validationNtB2_5FieldNtNtCsfvfooZQ3Axs_4core3fmt5Debug3fmt
FNDA:0,_RNCNvMs0_NtCsewKG4Aofwh8_12solver_types10validationNtB7_6Schema8validate0B9_
FNDA:0,_RNCNvMs0_NtCsewKG4Aofwh8_12solver_types10validationNtB7_6Schema8validates0_0B9_
FNDA:0,_RNCNvMs0_NtCsewKG4Aofwh8_12solver_types10validationNtB7_6Schema8validates1_0B9_
FNDA:0,_RNCNvMs0_NtCsewKG4Aofwh8_12solver_types10validationNtB7_6Schema8validates_0B9_
FNDA:0,_RNCNvNtCsewKG4Aofwh8_12solver_types10validation19validate_field_type0B5_
FNDA:0,_RNCNvNtCsewKG4Aofwh8_12solver_types10validation19validate_field_types0_0B5_
FNDA:0,_RNCNvNtCsewKG4Aofwh8_12solver_types10validation19validate_field_types_0B5_
FNF:13
FNH:0
DA:72,0
DA:73,0
DA:74,0
DA:75,0
DA:76,0
DA:77,0
DA:78,0
DA:88,0
DA:89,0
DA:90,0
DA:91,0
DA:92,0
DA:93,0
DA:94,0
DA:105,0
DA:106,0
DA:107,0
DA:108,0
DA:109,0
DA:110,0
DA:111,0
DA:134,0
DA:135,0
DA:136,0
DA:162,0
DA:163,0
DA:164,0
DA:165,0
DA:166,0
DA:167,0
DA:168,0
DA:169,0
DA:172,0
DA:173,0
DA:174,0
DA:175,0
DA:177,0
DA:180,0
DA:181,0
DA:182,0
DA:183,0
DA:184,0
DA:185,0
DA:189,0
DA:190,0
DA:191,0
DA:194,0
DA:195,0
DA:196,0
DA:197,0
DA:198,0
DA:199,0
DA:200,0
DA:203,0
DA:204,0
DA:223,0
DA:224,0
DA:225,0
DA:226,0
DA:227,0
DA:228,0
DA:230,0
DA:231,0
DA:232,0
DA:233,0
DA:234,0
DA:235,0
DA:236,0
DA:238,0
DA:239,0
DA:240,0
DA:241,0
DA:242,0
DA:243,0
DA:244,0
DA:245,0
DA:247,0
DA:248,0
DA:249,0
DA:250,0
DA:251,0
DA:252,0
DA:253,0
DA:254,0
DA:256,0
DA:257,0
DA:258,0
DA:259,0
DA:260,0
DA:261,0
DA:262,0
DA:263,0
DA:266,0
DA:267,0
DA:268,0
DA:269,0
DA:270,0
DA:271,0
DA:272,0
DA:274,0
DA:275,0
DA:276,0
DA:277,0
DA:278,0
DA:279,0
DA:280,0
DA:281,0
DA:283,0
DA:284,0
DA:287,0
DA:288,0
DA:289,0
DA:290,0
DA:292,0
DA:293,0
DA:294,0
DA:295,0
DA:297,0
DA:298,0
DA:299,0
DA:300,0
DA:301,0
DA:302,0
DA:303,0
DA:304,0
DA:305,0
DA:306,0
DA:310,0
DA:311,0
BRF:0
BRH:0
LF:142
LH:0
end_of_record